target datalayout = "e-m:e-p270:32:32-p271:32:32-p272:64:64-i64:64-i128:128-f80:128-n8:16:32:64-S128"
target triple = "x86_64-pc-linux-gnu"

%struct._address = type { i32, i32, ptr, ptr }
%struct._packet_info = type { ptr, ptr, i32, i32, %struct.nstime_t, %struct.nstime_t, %struct.nstime_t, i8, ptr, ptr, ptr, ptr, %struct._address, %struct._address, %struct._address, %struct._address, %struct._address, %struct._address, i32, ptr, i8, [3 x i8], %struct.anon, i32, i32, i32, i32, ptr, i8, ptr, ptr, i16, i16, i32, i32, i16, i32, i32, ptr, ptr, ptr, i8, i8, i16, i16, i16, i32, i16, i16, ptr, ptr, ptr, ptr, ptr, i32, i32 }
%struct.nstime_t = type { i64, i32 }
%struct.anon = type { i8, [3 x i8] }

@.str.5 = private unnamed_addr constant [5 x i8] c"Host\00", align 1
@.str.6 = private unnamed_addr constant [4 x i8] c"CAM\00", align 1

; Function Attrs: inlinehint nounwind null_pointer_is_valid sspstrong uwtable
define internal void @set_address(ptr noundef %0, i32 noundef %1, i32 noundef %2, ptr noundef %3) #1 {
  %5 = alloca ptr, align 8
  %6 = alloca i32, align 4
  %7 = alloca i32, align 4
  %8 = alloca ptr, align 8
  store ptr %0, ptr %5, align 8
  store i32 %1, ptr %6, align 4
  store i32 %2, ptr %7, align 4
  store ptr %3, ptr %8, align 8
  %9 = load i32, ptr %7, align 4
  %10 = icmp eq i32 %9, 0
  br i1 %10, label %11, label %14

11:                                               ; preds = %4
  br label %12

12:                                               ; preds = %11
  br label %13

13:                                               ; preds = %12
  br label %19

14:                                               ; preds = %4
  br label %15

15:                                               ; preds = %14
  br label %16

16:                                               ; preds = %15
  br label %17

17:                                               ; preds = %16
  br label %18

18:                                               ; preds = %17
  br label %19

19:                                               ; preds = %18, %13
  %20 = load i32, ptr %6, align 4
  %21 = load ptr, ptr %5, align 8
  %22 = getelementptr inbounds nuw %struct._address, ptr %21, i32 0, i32 0
  store i32 %20, ptr %22, align 8
  %23 = load i32, ptr %7, align 4
  %24 = load ptr, ptr %5, align 8
  %25 = getelementptr inbounds nuw %struct._address, ptr %24, i32 0, i32 1
  store i32 %23, ptr %25, align 4
  %26 = load ptr, ptr %8, align 8
  %27 = load ptr, ptr %5, align 8
  %28 = getelementptr inbounds nuw %struct._address, ptr %27, i32 0, i32 2
  store ptr %26, ptr %28, align 8
  %29 = load ptr, ptr %5, align 8
  %30 = getelementptr inbounds nuw %struct._address, ptr %29, i32 0, i32 3
  store ptr null, ptr %30, align 8
  ret void
}

; Function Attrs: null_pointer_is_valid sspstrong uwtable
define hidden i32 @dvbci_set_addrs(i8 noundef zeroext %0, ptr noundef %1) #0 {
  %3 = alloca i32, align 4
  %4 = alloca i8, align 1
  %5 = alloca ptr, align 8
  store i8 %0, ptr %4, align 1
  store ptr %1, ptr %5, align 8
  %6 = load i8, ptr %4, align 1
  %7 = zext i8 %6 to i32
  %8 = icmp eq i32 %7, 255
  br i1 %8, label %14, label %9

9:                                                ; preds = %2
  %10 = load i8, ptr %4, align 1
  %11 = zext i8 %10 to i32
  %12 = icmp eq i32 %11, 254
  br i1 %12, label %14, label %13

13:                                               ; preds = %9
  store i32 -1, ptr %3, align 4
  br label %29

14:                                               ; preds = %9, %2
  %15 = load i8, ptr %4, align 1
  %16 = zext i8 %15 to i32
  %17 = icmp eq i32 %16, 254
  br i1 %17, label %18, label %23

18:                                               ; preds = %14
  %19 = load ptr, ptr %5, align 8
  %20 = getelementptr inbounds nuw %struct._packet_info, ptr %19, i32 0, i32 16
  call void @set_address(ptr noundef %20, i32 noundef 7, i32 noundef 5, ptr noundef @.str.5)
  %21 = load ptr, ptr %5, align 8
  %22 = getelementptr inbounds nuw %struct._packet_info, ptr %21, i32 0, i32 17
  call void @set_address(ptr noundef %22, i32 noundef 7, i32 noundef 4, ptr noundef @.str.6)
  br label %28

23:                                               ; preds = %14
  %24 = load ptr, ptr %5, align 8
  %25 = getelementptr inbounds nuw %struct._packet_info, ptr %24, i32 0, i32 16
  call void @set_address(ptr noundef %25, i32 noundef 7, i32 noundef 4, ptr noundef @.str.6)
  %26 = load ptr, ptr %5, align 8
  %27 = getelementptr inbounds nuw %struct._packet_info, ptr %26, i32 0, i32 17
  call void @set_address(ptr noundef %27, i32 noundef 7, i32 noundef 5, ptr noundef @.str.5)
  br label %28

28:                                               ; preds = %23, %18
  store i32 1, ptr %3, align 4
  br label %29

29:                                               ; preds = %28, %13
  %30 = load i32, ptr %3, align 4
  ret i32 %30
}