; Function Attrs: mustprogress nofree norecurse nosync nounwind null_pointer_is_valid sspstrong willreturn memory(argmem: write) uwtable
define hidden range(i32 -1, 2) i32 @dvbci_set_addrs(i8 noundef zeroext %0, ptr noundef writeonly captures(none) %1) local_unnamed_addr #0 {
  %or.cond = icmp ugt i8 %0, -3
  br i1 %or.cond, label %.sink.split, label %12

.sink.split:                                      ; preds = %2
  %3 = icmp eq i8 %0, -2
  %4 = getelementptr inbounds nuw i8, ptr %1, i64 208
  store i32 7, ptr %4, align 8
  %5 = getelementptr inbounds nuw i8, ptr %1, i64 212
  %6 = getelementptr inbounds nuw i8, ptr %1, i64 216
  %7 = getelementptr inbounds nuw i8, ptr %1, i64 224
  %8 = getelementptr inbounds nuw i8, ptr %1, i64 232
  %9 = getelementptr inbounds nuw i8, ptr %1, i64 236
  %10 = getelementptr inbounds nuw i8, ptr %1, i64 240
  %11 = getelementptr inbounds nuw i8, ptr %1, i64 248
  %. = select i1 %3, i32 5, i32 4
  %.str.5..str.6 = select i1 %3, ptr @.str.5, ptr @.str.6
  %.10 = select i1 %3, i32 4, i32 5
  %.str.6..str.5 = select i1 %3, ptr @.str.6, ptr @.str.5
  store i32 %., ptr %5, align 4
  store ptr %.str.5..str.6, ptr %6, align 8
  store ptr null, ptr %7, align 8
  store i32 7, ptr %8, align 8
  store i32 %.10, ptr %9, align 4
  store ptr %.str.6..str.5, ptr %10, align 8
  store ptr null, ptr %11, align 8
  br label %12

12:                                               ; preds = %.sink.split, %2
  %.0 = phi i32 [ -1, %2 ], [ 1, %.sink.split ]
  ret i32 %.0
}